; Function Attrs: mustprogress nounwind uwtable
define dso_local void @_ZN5clang17ObjCInterfaceDecl16setTypeParamListEPNS_17ObjCTypeParamListE(ptr noundef nonnull align 8 dereferenceable(128) %0, ptr noundef %1) local_unnamed_addr #0 align 2 {
  %3 = getelementptr inbounds nuw i8, ptr %0, i64 112
  store ptr %1, ptr %3, align 8
  %.not = icmp eq ptr %1, null
  br i1 %.not, label %.loopexit, label %4

4:                                                ; preds = %2
  %5 = getelementptr inbounds nuw i8, ptr %1, i64 8
  %6 = load i32, ptr %5, align 8
  %7 = zext i32 %6 to i64
  %.idx = shl nuw nsw i64 %7, 3
  %8 = getelementptr inbounds i8, ptr %1, i64 %.idx
  %.ptr14 = getelementptr inbounds i8, ptr %8, i64 16
  %.not1112 = icmp eq i32 %6, 0
  br i1 %.not1112, label %.loopexit, label %.lr.ph

.lr.ph:                                           ; preds = %4
  %.ptr = getelementptr inbounds i8, ptr %1, i64 16
  %9 = getelementptr inbounds i8, ptr %0, i64 48
  br label %10

10:                                               ; preds = %.lr.ph, %10
  %.013 = phi ptr [ %.ptr, %.lr.ph ], [ %12, %10 ]
  %11 = load ptr, ptr %.013, align 8
  tail call void @_ZN5clang4Decl14setDeclContextEPNS_11DeclContextE(ptr noundef nonnull align 8 dereferenceable(33) %11, ptr noundef nonnull %9) #23
  %12 = getelementptr inbounds i8, ptr %.013, i64 8
  %.not11 = icmp eq ptr %12, %.ptr14
  br i1 %.not11, label %.loopexit, label %10

.loopexit:                                        ; preds = %10, %4, %2
  ret void
}